CCS PCM C Compiler, Version 5.049, 5967               14-Eyl-22 00:56

               Filename:   C:\Users\Eray\Desktop\Pic16f877 Projelerii\Bluetooth ile  Sýcaklýk Sensörü\sicaklik sensoru kod.lst

               ROM used:   1719 words (21%)
                           Largest free fragment is 2048
               RAM used:   20 (5%) at main() level
                           42 (11%) worst case
               Stack used: 2 locations
               Stack size: 8

*
0000:  MOVLW  05
0001:  MOVWF  0A
0002:  GOTO   50F
0003:  NOP
.................... #include<16f877.h> 
.................... //////////// Standard Header file for the PIC16F877 device //////////////// 
.................... /////////////////////////////////////////////////////////////////////////// 
.................... ////        (C) Copyright 1996, 2014 Custom Computer Services          //// 
.................... //// This source code may only be used by licensed users of the CCS C  //// 
.................... //// compiler.  This source code may only be distributed to other      //// 
.................... //// licensed users of the CCS C compiler.  No other use, reproduction //// 
.................... //// or distribution is permitted without written permission.          //// 
.................... //// Derivative programs created using this software in object code    //// 
.................... //// form are not restricted in any way.                               //// 
.................... /////////////////////////////////////////////////////////////////////////// 
.................... #device PIC16F877 
0004:  DATA D3,34
0005:  DATA E3,30
0006:  DATA 6B,36
0007:  DATA E9,35
0008:  DATA A0,1E
0009:  DATA A0,12
000A:  DATA AE,18
000B:  DATA 66,10
000C:  DATA C3,06
000D:  DATA 00,00
000E:  DATA C8,30
000F:  DATA F6,30
0010:  DATA A0,29
0011:  DATA EF,33
0012:  DATA F5,35
0013:  DATA 0D,00
0014:  DATA D3,34
0015:  DATA E3,30
0016:  DATA 6B,36
0017:  DATA E9,35
0018:  DATA A0,1E
0019:  DATA A0,12
001A:  DATA AE,18
001B:  DATA 66,10
001C:  DATA C3,06
001D:  DATA 00,01
001E:  DATA C8,30
001F:  DATA F6,30
0020:  DATA A0,24
0021:  DATA EC,34
0022:  DATA EB,06
0023:  DATA 00,01
0024:  DATA D3,34
0025:  DATA E3,30
0026:  DATA 6B,36
0027:  DATA E9,35
0028:  DATA A0,1E
0029:  DATA A0,12
002A:  DATA AE,18
002B:  DATA 66,10
002C:  DATA C3,06
002D:  DATA 00,01
002E:  DATA C8,30
002F:  DATA F6,30
0030:  DATA A0,29
0031:  DATA E9,31
0032:  DATA E1,35
0033:  DATA 0D,00
0034:  MOVLW  8E
0035:  MOVWF  77
0036:  MOVF   2C,W
0037:  MOVWF  78
0038:  MOVF   2B,W
0039:  MOVWF  79
003A:  CLRF   7A
003B:  MOVF   78,F
003C:  BTFSS  03.2
003D:  GOTO   048
003E:  MOVF   79,W
003F:  MOVWF  78
0040:  CLRF   79
0041:  MOVLW  08
0042:  SUBWF  77,F
0043:  MOVF   78,F
0044:  BTFSS  03.2
0045:  GOTO   048
0046:  CLRF   77
0047:  GOTO   050
0048:  BCF    03.0
0049:  BTFSC  78.7
004A:  GOTO   04F
004B:  RLF    79,F
004C:  RLF    78,F
004D:  DECF   77,F
004E:  GOTO   048
004F:  BCF    78.7
0050:  BCF    0A.3
0051:  BCF    0A.4
0052:  GOTO   55B (RETURN)
0053:  MOVF   38,W
0054:  BTFSC  03.2
0055:  GOTO   0C3
0056:  MOVWF  40
0057:  MOVF   3C,W
0058:  BTFSC  03.2
0059:  GOTO   0C3
005A:  ADDWF  40,F
005B:  BTFSC  03.0
005C:  GOTO   064
005D:  MOVLW  7F
005E:  SUBWF  40,F
005F:  BTFSS  03.0
0060:  GOTO   0C3
0061:  BTFSC  03.2
0062:  GOTO   0C3
0063:  GOTO   068
0064:  MOVLW  81
0065:  ADDWF  40,F
0066:  BTFSC  03.0
0067:  GOTO   0C3
0068:  MOVF   40,W
0069:  MOVWF  77
006A:  CLRF   78
006B:  CLRF   79
006C:  CLRF   7A
006D:  MOVF   39,W
006E:  MOVWF  44
006F:  BSF    44.7
0070:  MOVF   3A,W
0071:  MOVWF  43
0072:  MOVF   3B,W
0073:  MOVWF  42
0074:  MOVLW  18
0075:  MOVWF  40
0076:  CLRF   41
0077:  BTFSS  42.0
0078:  GOTO   091
0079:  MOVF   3F,W
007A:  ADDWF  7A,F
007B:  BTFSS  03.0
007C:  GOTO   083
007D:  INCF   79,F
007E:  BTFSS  03.2
007F:  GOTO   083
0080:  INCF   78,F
0081:  BTFSC  03.2
0082:  BSF    41.7
0083:  MOVF   3E,W
0084:  ADDWF  79,F
0085:  BTFSS  03.0
0086:  GOTO   08A
0087:  INCF   78,F
0088:  BTFSC  03.2
0089:  BSF    41.7
008A:  MOVF   3D,W
008B:  MOVWF  3A
008C:  BSF    3A.7
008D:  MOVF   3A,W
008E:  ADDWF  78,F
008F:  BTFSC  03.0
0090:  BSF    41.7
0091:  RLF    41,F
0092:  RRF    78,F
0093:  RRF    79,F
0094:  RRF    7A,F
0095:  RRF    44,F
0096:  RRF    43,F
0097:  RRF    42,F
0098:  BCF    03.0
0099:  DECFSZ 40,F
009A:  GOTO   076
009B:  MOVLW  01
009C:  ADDWF  77,F
009D:  BTFSC  03.0
009E:  GOTO   0C3
009F:  BTFSC  78.7
00A0:  GOTO   0A8
00A1:  RLF    44,F
00A2:  RLF    7A,F
00A3:  RLF    79,F
00A4:  RLF    78,F
00A5:  DECF   77,F
00A6:  BTFSC  03.2
00A7:  GOTO   0C3
00A8:  BTFSS  44.7
00A9:  GOTO   0B9
00AA:  INCF   7A,F
00AB:  BTFSS  03.2
00AC:  GOTO   0B9
00AD:  INCF   79,F
00AE:  BTFSS  03.2
00AF:  GOTO   0B9
00B0:  INCF   78,F
00B1:  BTFSS  03.2
00B2:  GOTO   0B9
00B3:  RRF    78,F
00B4:  RRF    79,F
00B5:  RRF    7A,F
00B6:  INCF   77,F
00B7:  BTFSC  03.2
00B8:  GOTO   0C3
00B9:  MOVF   39,W
00BA:  MOVWF  41
00BB:  MOVF   3D,W
00BC:  XORWF  41,F
00BD:  BTFSS  41.7
00BE:  GOTO   0C1
00BF:  BSF    78.7
00C0:  GOTO   0C7
00C1:  BCF    78.7
00C2:  GOTO   0C7
00C3:  CLRF   77
00C4:  CLRF   78
00C5:  CLRF   79
00C6:  CLRF   7A
00C7:  RETURN
00C8:  MOVF   2B,W
00C9:  BTFSC  03.2
00CA:  GOTO   18D
00CB:  MOVWF  37
00CC:  MOVF   2F,W
00CD:  BTFSC  03.2
00CE:  GOTO   18D
00CF:  SUBWF  37,F
00D0:  BTFSS  03.0
00D1:  GOTO   0D7
00D2:  MOVLW  7F
00D3:  ADDWF  37,F
00D4:  BTFSC  03.0
00D5:  GOTO   18D
00D6:  GOTO   0DD
00D7:  MOVLW  81
00D8:  SUBWF  37,F
00D9:  BTFSS  03.0
00DA:  GOTO   18D
00DB:  BTFSC  03.2
00DC:  GOTO   18D
00DD:  MOVF   37,W
00DE:  MOVWF  77
00DF:  CLRF   78
00E0:  CLRF   79
00E1:  CLRF   7A
00E2:  CLRF   36
00E3:  MOVF   2C,W
00E4:  MOVWF  35
00E5:  BSF    35.7
00E6:  MOVF   2D,W
00E7:  MOVWF  34
00E8:  MOVF   2E,W
00E9:  MOVWF  33
00EA:  MOVLW  19
00EB:  MOVWF  37
00EC:  MOVF   32,W
00ED:  SUBWF  33,F
00EE:  BTFSC  03.0
00EF:  GOTO   100
00F0:  MOVLW  01
00F1:  SUBWF  34,F
00F2:  BTFSC  03.0
00F3:  GOTO   100
00F4:  SUBWF  35,F
00F5:  BTFSC  03.0
00F6:  GOTO   100
00F7:  SUBWF  36,F
00F8:  BTFSC  03.0
00F9:  GOTO   100
00FA:  INCF   36,F
00FB:  INCF   35,F
00FC:  INCF   34,F
00FD:  MOVF   32,W
00FE:  ADDWF  33,F
00FF:  GOTO   132
0100:  MOVF   31,W
0101:  SUBWF  34,F
0102:  BTFSC  03.0
0103:  GOTO   11B
0104:  MOVLW  01
0105:  SUBWF  35,F
0106:  BTFSC  03.0
0107:  GOTO   11B
0108:  SUBWF  36,F
0109:  BTFSC  03.0
010A:  GOTO   11B
010B:  INCF   36,F
010C:  INCF   35,F
010D:  MOVF   31,W
010E:  ADDWF  34,F
010F:  MOVF   32,W
0110:  ADDWF  33,F
0111:  BTFSS  03.0
0112:  GOTO   132
0113:  INCF   34,F
0114:  BTFSS  03.2
0115:  GOTO   132
0116:  INCF   35,F
0117:  BTFSS  03.2
0118:  GOTO   132
0119:  INCF   36,F
011A:  GOTO   132
011B:  MOVF   30,W
011C:  IORLW  80
011D:  SUBWF  35,F
011E:  BTFSC  03.0
011F:  GOTO   131
0120:  MOVLW  01
0121:  SUBWF  36,F
0122:  BTFSC  03.0
0123:  GOTO   131
0124:  INCF   36,F
0125:  MOVF   30,W
0126:  IORLW  80
0127:  ADDWF  35,F
0128:  MOVF   31,W
0129:  ADDWF  34,F
012A:  BTFSS  03.0
012B:  GOTO   10F
012C:  INCF   35,F
012D:  BTFSS  03.2
012E:  GOTO   10F
012F:  INCF   36,F
0130:  GOTO   10F
0131:  BSF    7A.0
0132:  DECFSZ 37,F
0133:  GOTO   135
0134:  GOTO   140
0135:  BCF    03.0
0136:  RLF    33,F
0137:  RLF    34,F
0138:  RLF    35,F
0139:  RLF    36,F
013A:  BCF    03.0
013B:  RLF    7A,F
013C:  RLF    79,F
013D:  RLF    78,F
013E:  RLF    38,F
013F:  GOTO   0EC
0140:  BTFSS  38.0
0141:  GOTO   148
0142:  BCF    03.0
0143:  RRF    78,F
0144:  RRF    79,F
0145:  RRF    7A,F
0146:  RRF    38,F
0147:  GOTO   14B
0148:  DECF   77,F
0149:  BTFSC  03.2
014A:  GOTO   18D
014B:  BTFSC  38.7
014C:  GOTO   174
014D:  BCF    03.0
014E:  RLF    33,F
014F:  RLF    34,F
0150:  RLF    35,F
0151:  RLF    36,F
0152:  MOVF   32,W
0153:  SUBWF  33,F
0154:  BTFSC  03.0
0155:  GOTO   160
0156:  MOVLW  01
0157:  SUBWF  34,F
0158:  BTFSC  03.0
0159:  GOTO   160
015A:  SUBWF  35,F
015B:  BTFSC  03.0
015C:  GOTO   160
015D:  SUBWF  36,F
015E:  BTFSS  03.0
015F:  GOTO   183
0160:  MOVF   31,W
0161:  SUBWF  34,F
0162:  BTFSC  03.0
0163:  GOTO   16B
0164:  MOVLW  01
0165:  SUBWF  35,F
0166:  BTFSC  03.0
0167:  GOTO   16B
0168:  SUBWF  36,F
0169:  BTFSS  03.0
016A:  GOTO   183
016B:  MOVF   30,W
016C:  IORLW  80
016D:  SUBWF  35,F
016E:  BTFSC  03.0
016F:  GOTO   174
0170:  MOVLW  01
0171:  SUBWF  36,F
0172:  BTFSS  03.0
0173:  GOTO   183
0174:  INCF   7A,F
0175:  BTFSS  03.2
0176:  GOTO   183
0177:  INCF   79,F
0178:  BTFSS  03.2
0179:  GOTO   183
017A:  INCF   78,F
017B:  BTFSS  03.2
017C:  GOTO   183
017D:  INCF   77,F
017E:  BTFSC  03.2
017F:  GOTO   18D
0180:  RRF    78,F
0181:  RRF    79,F
0182:  RRF    7A,F
0183:  MOVF   2C,W
0184:  MOVWF  37
0185:  MOVF   30,W
0186:  XORWF  37,F
0187:  BTFSS  37.7
0188:  GOTO   18B
0189:  BSF    78.7
018A:  GOTO   191
018B:  BCF    78.7
018C:  GOTO   191
018D:  CLRF   77
018E:  CLRF   78
018F:  CLRF   79
0190:  CLRF   7A
0191:  BCF    0A.3
0192:  BCF    0A.4
0193:  GOTO   598 (RETURN)
0194:  MOVLW  80
0195:  BTFSC  03.1
0196:  XORWF  34,F
0197:  CLRF   39
0198:  CLRF   3A
0199:  MOVF   30,W
019A:  MOVWF  38
019B:  MOVF   34,W
019C:  XORWF  38,F
019D:  MOVF   2F,W
019E:  BTFSC  03.2
019F:  GOTO   284
01A0:  MOVWF  37
01A1:  MOVWF  77
01A2:  MOVF   33,W
01A3:  BTFSC  03.2
01A4:  GOTO   28D
01A5:  SUBWF  37,F
01A6:  BTFSC  03.2
01A7:  GOTO   229
01A8:  BTFSS  03.0
01A9:  GOTO   1E7
01AA:  MOVF   34,W
01AB:  MOVWF  3D
01AC:  BSF    3D.7
01AD:  MOVF   35,W
01AE:  MOVWF  3C
01AF:  MOVF   36,W
01B0:  MOVWF  3B
01B1:  CLRF   3A
01B2:  BCF    03.0
01B3:  RRF    3D,F
01B4:  RRF    3C,F
01B5:  RRF    3B,F
01B6:  RRF    3A,F
01B7:  DECFSZ 37,F
01B8:  GOTO   1B1
01B9:  BTFSS  38.7
01BA:  GOTO   1BE
01BB:  BSF    39.0
01BC:  GOTO   2A1
01BD:  BCF    39.0
01BE:  BCF    37.0
01BF:  BSF    39.4
01C0:  MOVLW  32
01C1:  MOVWF  04
01C2:  BCF    03.7
01C3:  GOTO   2B6
01C4:  BCF    39.4
01C5:  BTFSC  38.7
01C6:  GOTO   1D1
01C7:  BTFSS  37.0
01C8:  GOTO   1DC
01C9:  RRF    3D,F
01CA:  RRF    3C,F
01CB:  RRF    3B,F
01CC:  RRF    3A,F
01CD:  INCF   77,F
01CE:  BTFSC  03.2
01CF:  GOTO   29C
01D0:  GOTO   1DC
01D1:  BTFSC  3D.7
01D2:  GOTO   1DF
01D3:  BCF    03.0
01D4:  RLF    3A,F
01D5:  RLF    3B,F
01D6:  RLF    3C,F
01D7:  RLF    3D,F
01D8:  DECF   77,F
01D9:  BTFSC  03.2
01DA:  GOTO   29C
01DB:  GOTO   1D1
01DC:  BSF    39.6
01DD:  GOTO   249
01DE:  BCF    39.6
01DF:  MOVF   30,W
01E0:  MOVWF  38
01E1:  BTFSS  38.7
01E2:  GOTO   1E5
01E3:  BSF    3D.7
01E4:  GOTO   295
01E5:  BCF    3D.7
01E6:  GOTO   295
01E7:  MOVF   33,W
01E8:  MOVWF  37
01E9:  MOVWF  77
01EA:  MOVF   2F,W
01EB:  SUBWF  37,F
01EC:  MOVF   30,W
01ED:  MOVWF  3D
01EE:  BSF    3D.7
01EF:  MOVF   31,W
01F0:  MOVWF  3C
01F1:  MOVF   32,W
01F2:  MOVWF  3B
01F3:  CLRF   3A
01F4:  BCF    03.0
01F5:  RRF    3D,F
01F6:  RRF    3C,F
01F7:  RRF    3B,F
01F8:  RRF    3A,F
01F9:  DECFSZ 37,F
01FA:  GOTO   1F3
01FB:  BTFSS  38.7
01FC:  GOTO   200
01FD:  BSF    39.1
01FE:  GOTO   2A1
01FF:  BCF    39.1
0200:  BCF    37.0
0201:  BSF    39.5
0202:  MOVLW  36
0203:  MOVWF  04
0204:  BCF    03.7
0205:  GOTO   2B6
0206:  BCF    39.5
0207:  BTFSC  38.7
0208:  GOTO   213
0209:  BTFSS  37.0
020A:  GOTO   21E
020B:  RRF    3D,F
020C:  RRF    3C,F
020D:  RRF    3B,F
020E:  RRF    3A,F
020F:  INCF   77,F
0210:  BTFSC  03.2
0211:  GOTO   29C
0212:  GOTO   21E
0213:  BTFSC  3D.7
0214:  GOTO   221
0215:  BCF    03.0
0216:  RLF    3A,F
0217:  RLF    3B,F
0218:  RLF    3C,F
0219:  RLF    3D,F
021A:  DECF   77,F
021B:  BTFSC  03.2
021C:  GOTO   29C
021D:  GOTO   213
021E:  BSF    39.7
021F:  GOTO   249
0220:  BCF    39.7
0221:  MOVF   34,W
0222:  MOVWF  38
0223:  BTFSS  38.7
0224:  GOTO   227
0225:  BSF    3D.7
0226:  GOTO   295
0227:  BCF    3D.7
0228:  GOTO   295
0229:  MOVF   34,W
022A:  MOVWF  3D
022B:  BSF    3D.7
022C:  MOVF   35,W
022D:  MOVWF  3C
022E:  MOVF   36,W
022F:  MOVWF  3B
0230:  BTFSS  38.7
0231:  GOTO   236
0232:  BCF    3D.7
0233:  BSF    39.2
0234:  GOTO   2A1
0235:  BCF    39.2
0236:  CLRF   3A
0237:  BCF    37.0
0238:  MOVLW  32
0239:  MOVWF  04
023A:  BCF    03.7
023B:  GOTO   2B6
023C:  BTFSC  38.7
023D:  GOTO   25F
023E:  MOVF   30,W
023F:  MOVWF  38
0240:  BTFSS  37.0
0241:  GOTO   249
0242:  RRF    3D,F
0243:  RRF    3C,F
0244:  RRF    3B,F
0245:  RRF    3A,F
0246:  INCF   77,F
0247:  BTFSC  03.2
0248:  GOTO   29C
0249:  BTFSS  3A.7
024A:  GOTO   25A
024B:  INCF   3B,F
024C:  BTFSS  03.2
024D:  GOTO   25A
024E:  INCF   3C,F
024F:  BTFSS  03.2
0250:  GOTO   25A
0251:  INCF   3D,F
0252:  BTFSS  03.2
0253:  GOTO   25A
0254:  RRF    3D,F
0255:  RRF    3C,F
0256:  RRF    3B,F
0257:  INCF   77,F
0258:  BTFSC  03.2
0259:  GOTO   29C
025A:  BTFSC  39.6
025B:  GOTO   1DE
025C:  BTFSC  39.7
025D:  GOTO   220
025E:  GOTO   27E
025F:  MOVLW  80
0260:  XORWF  3D,F
0261:  BTFSS  3D.7
0262:  GOTO   267
0263:  GOTO   2A1
0264:  MOVF   34,W
0265:  MOVWF  38
0266:  GOTO   274
0267:  MOVF   30,W
0268:  MOVWF  38
0269:  MOVF   3D,F
026A:  BTFSS  03.2
026B:  GOTO   274
026C:  MOVF   3C,F
026D:  BTFSS  03.2
026E:  GOTO   274
026F:  MOVF   3B,F
0270:  BTFSS  03.2
0271:  GOTO   274
0272:  CLRF   77
0273:  GOTO   295
0274:  BTFSC  3D.7
0275:  GOTO   27E
0276:  BCF    03.0
0277:  RLF    3A,F
0278:  RLF    3B,F
0279:  RLF    3C,F
027A:  RLF    3D,F
027B:  DECFSZ 77,F
027C:  GOTO   274
027D:  GOTO   29C
027E:  BTFSS  38.7
027F:  GOTO   282
0280:  BSF    3D.7
0281:  GOTO   295
0282:  BCF    3D.7
0283:  GOTO   295
0284:  MOVF   33,W
0285:  MOVWF  77
0286:  MOVF   34,W
0287:  MOVWF  3D
0288:  MOVF   35,W
0289:  MOVWF  3C
028A:  MOVF   36,W
028B:  MOVWF  3B
028C:  GOTO   295
028D:  MOVF   2F,W
028E:  MOVWF  77
028F:  MOVF   30,W
0290:  MOVWF  3D
0291:  MOVF   31,W
0292:  MOVWF  3C
0293:  MOVF   32,W
0294:  MOVWF  3B
0295:  MOVF   3D,W
0296:  MOVWF  78
0297:  MOVF   3C,W
0298:  MOVWF  79
0299:  MOVF   3B,W
029A:  MOVWF  7A
029B:  GOTO   2D4
029C:  CLRF   77
029D:  CLRF   78
029E:  CLRF   79
029F:  CLRF   7A
02A0:  GOTO   2D4
02A1:  CLRF   3A
02A2:  COMF   3B,F
02A3:  COMF   3C,F
02A4:  COMF   3D,F
02A5:  COMF   3A,F
02A6:  INCF   3A,F
02A7:  BTFSS  03.2
02A8:  GOTO   2AF
02A9:  INCF   3B,F
02AA:  BTFSS  03.2
02AB:  GOTO   2AF
02AC:  INCF   3C,F
02AD:  BTFSC  03.2
02AE:  INCF   3D,F
02AF:  BTFSC  39.0
02B0:  GOTO   1BD
02B1:  BTFSC  39.1
02B2:  GOTO   1FF
02B3:  BTFSC  39.2
02B4:  GOTO   235
02B5:  GOTO   264
02B6:  MOVF   00,W
02B7:  ADDWF  3B,F
02B8:  BTFSS  03.0
02B9:  GOTO   2C0
02BA:  INCF   3C,F
02BB:  BTFSS  03.2
02BC:  GOTO   2C0
02BD:  INCF   3D,F
02BE:  BTFSC  03.2
02BF:  BSF    37.0
02C0:  DECF   04,F
02C1:  MOVF   00,W
02C2:  ADDWF  3C,F
02C3:  BTFSS  03.0
02C4:  GOTO   2C8
02C5:  INCF   3D,F
02C6:  BTFSC  03.2
02C7:  BSF    37.0
02C8:  DECF   04,F
02C9:  MOVF   00,W
02CA:  BTFSS  00.7
02CB:  XORLW  80
02CC:  ADDWF  3D,F
02CD:  BTFSC  03.0
02CE:  BSF    37.0
02CF:  BTFSC  39.4
02D0:  GOTO   1C4
02D1:  BTFSC  39.5
02D2:  GOTO   206
02D3:  GOTO   23C
02D4:  BCF    0A.3
02D5:  BCF    0A.4
02D6:  GOTO   5AF (RETURN)
02D7:  MOVF   2C,W
02D8:  MOVWF  33
02D9:  MOVF   30,W
02DA:  XORWF  33,F
02DB:  BTFSS  33.7
02DC:  GOTO   2E2
02DD:  BCF    03.2
02DE:  BCF    03.0
02DF:  BTFSC  2C.7
02E0:  BSF    03.0
02E1:  GOTO   315
02E2:  MOVF   2C,W
02E3:  MOVWF  33
02E4:  MOVF   2F,W
02E5:  MOVWF  34
02E6:  MOVF   2B,W
02E7:  SUBWF  34,F
02E8:  BTFSC  03.2
02E9:  GOTO   2F0
02EA:  BTFSS  33.7
02EB:  GOTO   315
02EC:  MOVF   03,W
02ED:  XORLW  01
02EE:  MOVWF  03
02EF:  GOTO   315
02F0:  MOVF   30,W
02F1:  MOVWF  34
02F2:  MOVF   2C,W
02F3:  SUBWF  34,F
02F4:  BTFSC  03.2
02F5:  GOTO   2FC
02F6:  BTFSS  33.7
02F7:  GOTO   315
02F8:  MOVF   03,W
02F9:  XORLW  01
02FA:  MOVWF  03
02FB:  GOTO   315
02FC:  MOVF   31,W
02FD:  MOVWF  34
02FE:  MOVF   2D,W
02FF:  SUBWF  34,F
0300:  BTFSC  03.2
0301:  GOTO   308
0302:  BTFSS  33.7
0303:  GOTO   315
0304:  MOVF   03,W
0305:  XORLW  01
0306:  MOVWF  03
0307:  GOTO   315
0308:  MOVF   32,W
0309:  MOVWF  34
030A:  MOVF   2E,W
030B:  SUBWF  34,F
030C:  BTFSC  03.2
030D:  GOTO   314
030E:  BTFSS  33.7
030F:  GOTO   315
0310:  MOVF   03,W
0311:  XORLW  01
0312:  MOVWF  03
0313:  GOTO   315
0314:  BCF    03.0
0315:  RETURN
0316:  MOVF   0B,W
0317:  MOVWF  2C
0318:  BCF    0B.7
0319:  BSF    03.5
031A:  BSF    03.6
031B:  BSF    0C.7
031C:  BSF    0C.0
031D:  NOP
031E:  NOP
031F:  BCF    03.5
0320:  BCF    03.6
0321:  BTFSC  2C.7
0322:  BSF    0B.7
0323:  BTFSC  03.0
0324:  GOTO   34E
0325:  BSF    03.6
0326:  MOVF   0C,W
0327:  ANDLW  7F
0328:  BCF    03.6
0329:  MOVWF  2C
032A:  BSF    03.6
032B:  MOVF   0D,W
032C:  BCF    03.6
032D:  MOVWF  2D
032E:  BSF    03.6
032F:  MOVF   0F,W
0330:  BCF    03.6
0331:  MOVWF  2E
0332:  MOVF   2C,W
0333:  BTFSS  0C.4
0334:  GOTO   333
0335:  MOVWF  19
0336:  MOVF   2D,W
0337:  BSF    03.6
0338:  MOVWF  0D
0339:  BCF    03.6
033A:  MOVF   2E,W
033B:  BSF    03.6
033C:  MOVWF  0F
033D:  BCF    03.6
033E:  MOVF   0B,W
033F:  MOVWF  2F
0340:  BCF    0B.7
0341:  BSF    03.5
0342:  BSF    03.6
0343:  BSF    0C.7
0344:  BSF    0C.0
0345:  NOP
0346:  NOP
0347:  BCF    03.5
0348:  BCF    03.6
0349:  BTFSC  2F.7
034A:  BSF    0B.7
034B:  DECFSZ 2B,F
034C:  GOTO   34E
034D:  GOTO   36E
034E:  BSF    03.6
034F:  RLF    0C,W
0350:  RLF    0E,W
0351:  ANDLW  7F
0352:  BCF    03.6
0353:  MOVWF  2C
0354:  BSF    03.6
0355:  MOVF   0D,W
0356:  BCF    03.6
0357:  MOVWF  2D
0358:  BSF    03.6
0359:  MOVF   0F,W
035A:  BCF    03.6
035B:  MOVWF  2E
035C:  MOVF   2C,W
035D:  BTFSS  0C.4
035E:  GOTO   35D
035F:  MOVWF  19
0360:  MOVF   2D,W
0361:  BSF    03.6
0362:  MOVWF  0D
0363:  BCF    03.6
0364:  MOVF   2E,W
0365:  BSF    03.6
0366:  MOVWF  0F
0367:  INCF   0D,F
0368:  BTFSC  03.2
0369:  INCF   0F,F
036A:  BCF    03.0
036B:  BCF    03.6
036C:  DECFSZ 2B,F
036D:  GOTO   316
036E:  RETURN
036F:  BTFSC  03.1
0370:  GOTO   374
0371:  MOVLW  40
0372:  MOVWF  04
0373:  BCF    03.7
0374:  CLRF   77
0375:  CLRF   78
0376:  CLRF   79
0377:  CLRF   7A
0378:  CLRF   40
0379:  CLRF   41
037A:  CLRF   42
037B:  CLRF   43
037C:  MOVF   3F,W
037D:  IORWF  3E,W
037E:  IORWF  3D,W
037F:  IORWF  3C,W
0380:  BTFSC  03.2
0381:  GOTO   3B2
0382:  MOVLW  20
0383:  MOVWF  44
0384:  BCF    03.0
0385:  RLF    38,F
0386:  RLF    39,F
0387:  RLF    3A,F
0388:  RLF    3B,F
0389:  RLF    40,F
038A:  RLF    41,F
038B:  RLF    42,F
038C:  RLF    43,F
038D:  MOVF   3F,W
038E:  SUBWF  43,W
038F:  BTFSS  03.2
0390:  GOTO   39B
0391:  MOVF   3E,W
0392:  SUBWF  42,W
0393:  BTFSS  03.2
0394:  GOTO   39B
0395:  MOVF   3D,W
0396:  SUBWF  41,W
0397:  BTFSS  03.2
0398:  GOTO   39B
0399:  MOVF   3C,W
039A:  SUBWF  40,W
039B:  BTFSS  03.0
039C:  GOTO   3AC
039D:  MOVF   3C,W
039E:  SUBWF  40,F
039F:  MOVF   3D,W
03A0:  BTFSS  03.0
03A1:  INCFSZ 3D,W
03A2:  SUBWF  41,F
03A3:  MOVF   3E,W
03A4:  BTFSS  03.0
03A5:  INCFSZ 3E,W
03A6:  SUBWF  42,F
03A7:  MOVF   3F,W
03A8:  BTFSS  03.0
03A9:  INCFSZ 3F,W
03AA:  SUBWF  43,F
03AB:  BSF    03.0
03AC:  RLF    77,F
03AD:  RLF    78,F
03AE:  RLF    79,F
03AF:  RLF    7A,F
03B0:  DECFSZ 44,F
03B1:  GOTO   384
03B2:  MOVF   40,W
03B3:  MOVWF  00
03B4:  INCF   04,F
03B5:  MOVF   41,W
03B6:  MOVWF  00
03B7:  INCF   04,F
03B8:  MOVF   42,W
03B9:  MOVWF  00
03BA:  INCF   04,F
03BB:  MOVF   43,W
03BC:  MOVWF  00
03BD:  RETURN
03BE:  MOVF   04,W
03BF:  MOVWF  30
03C0:  MOVF   2F,W
03C1:  MOVWF  32
03C2:  BTFSC  03.2
03C3:  GOTO   3DD
03C4:  MOVF   2E,W
03C5:  MOVWF  3B
03C6:  MOVF   2D,W
03C7:  MOVWF  3A
03C8:  MOVF   2C,W
03C9:  MOVWF  39
03CA:  MOVF   2B,W
03CB:  MOVWF  38
03CC:  CLRF   3F
03CD:  CLRF   3E
03CE:  MOVLW  20
03CF:  MOVWF  3D
03D0:  MOVLW  82
03D1:  MOVWF  3C
03D2:  CALL   053
03D3:  MOVF   7A,W
03D4:  MOVWF  2E
03D5:  MOVF   79,W
03D6:  MOVWF  2D
03D7:  MOVF   78,W
03D8:  MOVWF  2C
03D9:  MOVF   77,W
03DA:  MOVWF  2B
03DB:  DECFSZ 32,F
03DC:  GOTO   3C4
03DD:  MOVF   2E,W
03DE:  MOVWF  3B
03DF:  MOVF   2D,W
03E0:  MOVWF  3A
03E1:  MOVF   2C,W
03E2:  MOVWF  39
03E3:  MOVF   2B,W
03E4:  MOVWF  38
03E5:  MOVF   38,W
03E6:  SUBLW  B6
03E7:  MOVWF  38
03E8:  CLRF   7A
03E9:  MOVF   39,W
03EA:  MOVWF  3C
03EB:  BSF    39.7
03EC:  BCF    03.0
03ED:  RRF    39,F
03EE:  RRF    3A,F
03EF:  RRF    3B,F
03F0:  RRF    7A,F
03F1:  RRF    79,F
03F2:  RRF    78,F
03F3:  RRF    77,F
03F4:  DECFSZ 38,F
03F5:  GOTO   3EC
03F6:  BTFSS  3C.7
03F7:  GOTO   403
03F8:  COMF   77,F
03F9:  COMF   78,F
03FA:  COMF   79,F
03FB:  COMF   7A,F
03FC:  INCF   77,F
03FD:  BTFSC  03.2
03FE:  INCF   78,F
03FF:  BTFSC  03.2
0400:  INCF   79,F
0401:  BTFSC  03.2
0402:  INCF   7A,F
0403:  MOVF   7A,W
0404:  MOVWF  2E
0405:  MOVF   79,W
0406:  MOVWF  2D
0407:  MOVF   78,W
0408:  MOVWF  2C
0409:  MOVF   77,W
040A:  MOVWF  2B
040B:  BTFSS  2E.7
040C:  GOTO   41A
040D:  DECF   30,F
040E:  BSF    30.5
040F:  COMF   2B,F
0410:  COMF   2C,F
0411:  COMF   2D,F
0412:  COMF   2E,F
0413:  INCF   2B,F
0414:  BTFSC  03.2
0415:  INCF   2C,F
0416:  BTFSC  03.2
0417:  INCF   2D,F
0418:  BTFSC  03.2
0419:  INCF   2E,F
041A:  MOVLW  3B
041B:  MOVWF  37
041C:  MOVLW  9A
041D:  MOVWF  36
041E:  MOVLW  CA
041F:  MOVWF  35
0420:  CLRF   34
0421:  MOVLW  0A
0422:  MOVWF  32
0423:  MOVF   2F,W
0424:  BTFSC  03.2
0425:  INCF   30,F
0426:  BSF    03.1
0427:  MOVLW  2B
0428:  MOVWF  04
0429:  BCF    03.7
042A:  MOVF   2E,W
042B:  MOVWF  3B
042C:  MOVF   2D,W
042D:  MOVWF  3A
042E:  MOVF   2C,W
042F:  MOVWF  39
0430:  MOVF   2B,W
0431:  MOVWF  38
0432:  MOVF   37,W
0433:  MOVWF  3F
0434:  MOVF   36,W
0435:  MOVWF  3E
0436:  MOVF   35,W
0437:  MOVWF  3D
0438:  MOVF   34,W
0439:  MOVWF  3C
043A:  CALL   36F
043B:  MOVF   78,W
043C:  MOVF   77,F
043D:  BTFSS  03.2
043E:  GOTO   452
043F:  INCF   2F,W
0440:  SUBWF  32,W
0441:  BTFSC  03.2
0442:  GOTO   452
0443:  MOVF   30,W
0444:  BTFSC  03.2
0445:  GOTO   454
0446:  ANDLW  0F
0447:  SUBWF  32,W
0448:  BTFSC  03.2
0449:  GOTO   44C
044A:  BTFSC  03.0
044B:  GOTO   488
044C:  BTFSC  30.7
044D:  GOTO   488
044E:  BTFSC  30.6
044F:  GOTO   454
0450:  MOVLW  20
0451:  GOTO   483
0452:  MOVLW  20
0453:  ANDWF  30,F
0454:  BTFSS  30.5
0455:  GOTO   463
0456:  BCF    30.5
0457:  MOVF   2F,W
0458:  BTFSS  03.2
0459:  DECF   30,F
045A:  MOVF   77,W
045B:  MOVWF  30
045C:  MOVLW  2D
045D:  BTFSS  0C.4
045E:  GOTO   45D
045F:  MOVWF  19
0460:  MOVF   30,W
0461:  MOVWF  77
0462:  CLRF   30
0463:  MOVF   2F,W
0464:  SUBWF  32,W
0465:  BTFSS  03.2
0466:  GOTO   472
0467:  MOVF   77,W
0468:  MOVWF  30
0469:  MOVLW  2E
046A:  BTFSS  0C.4
046B:  GOTO   46A
046C:  MOVWF  19
046D:  MOVF   30,W
046E:  MOVWF  77
046F:  MOVLW  20
0470:  ANDWF  30,F
0471:  MOVLW  00
0472:  MOVLW  30
0473:  BTFSS  30.5
0474:  GOTO   483
0475:  BCF    30.5
0476:  MOVF   2F,W
0477:  BTFSS  03.2
0478:  DECF   30,F
0479:  MOVF   77,W
047A:  MOVWF  30
047B:  MOVLW  2D
047C:  BTFSS  0C.4
047D:  GOTO   47C
047E:  MOVWF  19
047F:  MOVF   30,W
0480:  MOVWF  77
0481:  CLRF   30
0482:  MOVLW  30
0483:  ADDWF  77,F
0484:  MOVF   77,W
0485:  BTFSS  0C.4
0486:  GOTO   485
0487:  MOVWF  19
0488:  BCF    03.1
0489:  MOVF   37,W
048A:  MOVWF  3B
048B:  MOVF   36,W
048C:  MOVWF  3A
048D:  MOVF   35,W
048E:  MOVWF  39
048F:  MOVF   34,W
0490:  MOVWF  38
0491:  CLRF   3F
0492:  CLRF   3E
0493:  CLRF   3D
0494:  MOVLW  0A
0495:  MOVWF  3C
0496:  CALL   36F
0497:  MOVF   7A,W
0498:  MOVWF  37
0499:  MOVF   79,W
049A:  MOVWF  36
049B:  MOVF   78,W
049C:  MOVWF  35
049D:  MOVF   77,W
049E:  MOVWF  34
049F:  DECFSZ 32,F
04A0:  GOTO   426
04A1:  RETURN
04A2:  MOVF   0B,W
04A3:  MOVWF  2B
04A4:  BCF    0B.7
04A5:  BSF    03.5
04A6:  BSF    03.6
04A7:  BSF    0C.7
04A8:  BSF    0C.0
04A9:  NOP
04AA:  NOP
04AB:  BCF    03.5
04AC:  BCF    03.6
04AD:  BTFSC  2B.7
04AE:  BSF    0B.7
04AF:  BSF    03.6
04B0:  MOVF   0C,W
04B1:  ANDLW  7F
04B2:  BTFSC  03.2
04B3:  GOTO   4F8
04B4:  BCF    03.6
04B5:  MOVWF  2B
04B6:  BSF    03.6
04B7:  MOVF   0D,W
04B8:  BCF    03.6
04B9:  MOVWF  2C
04BA:  BSF    03.6
04BB:  MOVF   0F,W
04BC:  BCF    03.6
04BD:  MOVWF  2D
04BE:  MOVF   2B,W
04BF:  BTFSS  0C.4
04C0:  GOTO   4BF
04C1:  MOVWF  19
04C2:  MOVF   2C,W
04C3:  BSF    03.6
04C4:  MOVWF  0D
04C5:  BCF    03.6
04C6:  MOVF   2D,W
04C7:  BSF    03.6
04C8:  MOVWF  0F
04C9:  BCF    03.6
04CA:  MOVF   0B,W
04CB:  MOVWF  2E
04CC:  BCF    0B.7
04CD:  BSF    03.5
04CE:  BSF    03.6
04CF:  BSF    0C.7
04D0:  BSF    0C.0
04D1:  NOP
04D2:  NOP
04D3:  BCF    03.5
04D4:  BCF    03.6
04D5:  BTFSC  2E.7
04D6:  BSF    0B.7
04D7:  BSF    03.6
04D8:  RLF    0C,W
04D9:  RLF    0E,W
04DA:  ANDLW  7F
04DB:  BTFSC  03.2
04DC:  GOTO   4F8
04DD:  BCF    03.6
04DE:  MOVWF  2B
04DF:  BSF    03.6
04E0:  MOVF   0D,W
04E1:  BCF    03.6
04E2:  MOVWF  2C
04E3:  BSF    03.6
04E4:  MOVF   0F,W
04E5:  BCF    03.6
04E6:  MOVWF  2D
04E7:  MOVF   2B,W
04E8:  BTFSS  0C.4
04E9:  GOTO   4E8
04EA:  MOVWF  19
04EB:  MOVF   2C,W
04EC:  BSF    03.6
04ED:  MOVWF  0D
04EE:  BCF    03.6
04EF:  MOVF   2D,W
04F0:  BSF    03.6
04F1:  MOVWF  0F
04F2:  INCF   0D,F
04F3:  BTFSC  03.2
04F4:  INCF   0F,F
04F5:  BCF    03.6
04F6:  GOTO   4A2
04F7:  BSF    03.6
04F8:  BCF    03.6
04F9:  RETURN
....................  
.................... #list 
....................  
....................  
.................... #device ADC=10; 
....................  
.................... #fuses XT,NOWDT,NOPROTECT,NOBROWNOUT,NOLVP,NOPUT,NOWRT,NODEBUG,NOCPD 
....................  
.................... #use delay(clock=4000000) 
04FA:  MOVLW  2C
04FB:  MOVWF  04
04FC:  BCF    03.7
04FD:  MOVF   00,W
04FE:  BTFSC  03.2
04FF:  GOTO   50E
0500:  MOVLW  01
0501:  MOVWF  78
0502:  CLRF   77
0503:  DECFSZ 77,F
0504:  GOTO   503
0505:  DECFSZ 78,F
0506:  GOTO   502
0507:  MOVLW  4A
0508:  MOVWF  77
0509:  DECFSZ 77,F
050A:  GOTO   509
050B:  GOTO   50C
050C:  DECFSZ 00,F
050D:  GOTO   500
050E:  RETURN
....................  
.................... #use fast_io(a) 
.................... #use fast_io(b) 
.................... #use fast_io(c) 
....................  
.................... #use rs232 (baud=9600, xmit=pin_c6, rcv=pin_c7, parity=N, stop=1, stream=bluetooth) 
....................  
.................... int deger; 
.................... float gerilim,sicaklik; 
....................  
.................... void main(){ 
050F:  MOVF   03,W
0510:  ANDLW  1F
0511:  MOVWF  03
0512:  MOVLW  19
0513:  BSF    03.5
0514:  MOVWF  19
0515:  MOVLW  A6
0516:  MOVWF  18
0517:  MOVLW  90
0518:  BCF    03.5
0519:  MOVWF  18
051A:  CLRF   2A
051B:  CLRF   29
051C:  BSF    03.5
051D:  BSF    1F.0
051E:  BSF    1F.1
051F:  BSF    1F.2
0520:  BCF    1F.3
0521:  BCF    03.7
....................  
.................... setup_psp(PSP_DISABLED); 
0522:  BCF    09.4
.................... setup_timer_1(T1_DISABLED); 
0523:  BCF    03.5
0524:  CLRF   10
.................... setup_ccp2(CCP_OFF); 
0525:  MOVLW  F0
0526:  ANDWF  1D,F
....................  
.................... setup_timer_2(T2_DIV_BY_16,255,1); 
0527:  MOVLW  00
0528:  MOVWF  78
0529:  IORLW  06
052A:  MOVWF  12
052B:  MOVLW  FF
052C:  BSF    03.5
052D:  MOVWF  12
....................  
.................... setup_adc_ports(ALL_ANALOG); 
052E:  BCF    1F.0
052F:  BCF    1F.1
0530:  BCF    1F.2
0531:  BCF    1F.3
.................... setup_adc(adc_clock_div_32); 
0532:  BCF    03.5
0533:  BCF    1F.6
0534:  BSF    1F.7
0535:  BSF    03.5
0536:  BSF    1F.7
0537:  BCF    03.5
0538:  BSF    1F.0
.................... set_adc_channel(0); 
0539:  MOVLW  00
053A:  MOVWF  78
053B:  MOVF   1F,W
053C:  ANDLW  C7
053D:  IORWF  78,W
053E:  MOVWF  1F
.................... delay_us(20); 
053F:  MOVLW  06
0540:  MOVWF  77
0541:  DECFSZ 77,F
0542:  GOTO   541
0543:  NOP
....................  
.................... setup_ccp1(CCP_PWM); 
0544:  BCF    07.2
0545:  MOVLW  0C
0546:  MOVWF  17
....................  
.................... set_tris_a(0x01); 
0547:  MOVLW  01
0548:  BSF    03.5
0549:  MOVWF  05
.................... set_tris_b(0x00); 
054A:  MOVLW  00
054B:  MOVWF  06
.................... set_tris_c(0b11000000); 
054C:  MOVLW  C0
054D:  MOVWF  07
....................  
.................... output_b(0x00); 
054E:  BCF    03.5
054F:  CLRF   06
....................  
....................  
....................  
.................... while(true){ 
....................  
.................... deger=read_adc(); 
0550:  BSF    1F.2
0551:  BTFSC  1F.2
0552:  GOTO   551
0553:  BSF    03.5
0554:  MOVF   1E,W
0555:  BCF    03.5
0556:  MOVWF  20
....................  
.................... gerilim=(deger*0.0048828125)*1000; //analog deðerin mV cinsinden gerilim karþýlýðý hesaplatýlýyor 
0557:  CLRF   2C
0558:  MOVF   20,W
0559:  MOVWF  2B
055A:  GOTO   034
055B:  MOVF   7A,W
055C:  MOVWF  3B
055D:  MOVF   79,W
055E:  MOVWF  3A
055F:  MOVF   78,W
0560:  MOVWF  39
0561:  MOVF   77,W
0562:  MOVWF  38
0563:  CLRF   3F
0564:  CLRF   3E
0565:  MOVLW  20
0566:  MOVWF  3D
0567:  MOVLW  77
0568:  MOVWF  3C
0569:  CALL   053
056A:  MOVF   7A,W
056B:  MOVWF  2E
056C:  MOVF   79,W
056D:  MOVWF  2D
056E:  MOVF   78,W
056F:  MOVWF  2C
0570:  MOVF   77,W
0571:  MOVWF  2B
0572:  MOVF   7A,W
0573:  MOVWF  3B
0574:  MOVF   79,W
0575:  MOVWF  3A
0576:  MOVF   78,W
0577:  MOVWF  39
0578:  MOVF   77,W
0579:  MOVWF  38
057A:  CLRF   3F
057B:  CLRF   3E
057C:  MOVLW  7A
057D:  MOVWF  3D
057E:  MOVLW  88
057F:  MOVWF  3C
0580:  CALL   053
0581:  MOVF   7A,W
0582:  MOVWF  24
0583:  MOVF   79,W
0584:  MOVWF  23
0585:  MOVF   78,W
0586:  MOVWF  22
0587:  MOVF   77,W
0588:  MOVWF  21
....................  
.................... sicaklik=(gerilim/10)+2; //LM35 her 10mV'ta 1 derece sýcaklýk artýþý saðladýðý için bu iþlem yaptýrýlýyor. +2'nin nedeni kullandýðýmýz sensörde 2 derece 0mV'a tekabül etmektedir. 
0589:  MOVF   24,W
058A:  MOVWF  2E
058B:  MOVF   23,W
058C:  MOVWF  2D
058D:  MOVF   22,W
058E:  MOVWF  2C
058F:  MOVF   21,W
0590:  MOVWF  2B
0591:  CLRF   32
0592:  CLRF   31
0593:  MOVLW  20
0594:  MOVWF  30
0595:  MOVLW  82
0596:  MOVWF  2F
0597:  GOTO   0C8
0598:  MOVF   7A,W
0599:  MOVWF  2E
059A:  MOVF   79,W
059B:  MOVWF  2D
059C:  MOVF   78,W
059D:  MOVWF  2C
059E:  MOVF   77,W
059F:  MOVWF  2B
05A0:  BCF    03.1
05A1:  MOVF   7A,W
05A2:  MOVWF  32
05A3:  MOVF   79,W
05A4:  MOVWF  31
05A5:  MOVF   78,W
05A6:  MOVWF  30
05A7:  MOVF   77,W
05A8:  MOVWF  2F
05A9:  CLRF   36
05AA:  CLRF   35
05AB:  CLRF   34
05AC:  MOVLW  80
05AD:  MOVWF  33
05AE:  GOTO   194
05AF:  MOVF   7A,W
05B0:  MOVWF  28
05B1:  MOVF   79,W
05B2:  MOVWF  27
05B3:  MOVF   78,W
05B4:  MOVWF  26
05B5:  MOVF   77,W
05B6:  MOVWF  25
....................  
....................  
.................... if(sicaklik >= 0 && sicaklik <= 15){ 
05B7:  CLRF   2E
05B8:  CLRF   2D
05B9:  CLRF   2C
05BA:  CLRF   2B
05BB:  MOVF   28,W
05BC:  MOVWF  32
05BD:  MOVF   27,W
05BE:  MOVWF  31
05BF:  MOVF   26,W
05C0:  MOVWF  30
05C1:  MOVF   25,W
05C2:  MOVWF  2F
05C3:  CALL   2D7
05C4:  BTFSC  03.0
05C5:  GOTO   5C8
05C6:  BTFSS  03.2
05C7:  GOTO   611
05C8:  MOVF   28,W
05C9:  MOVWF  2E
05CA:  MOVF   27,W
05CB:  MOVWF  2D
05CC:  MOVF   26,W
05CD:  MOVWF  2C
05CE:  MOVF   25,W
05CF:  MOVWF  2B
05D0:  CLRF   32
05D1:  CLRF   31
05D2:  MOVLW  70
05D3:  MOVWF  30
05D4:  MOVLW  82
05D5:  MOVWF  2F
05D6:  CALL   2D7
05D7:  BTFSC  03.0
05D8:  GOTO   5DB
05D9:  BTFSS  03.2
05DA:  GOTO   611
....................  
....................   printf("Sicaklik = %.1f C\r",sicaklik); 
05DB:  MOVLW  04
05DC:  BSF    03.6
05DD:  MOVWF  0D
05DE:  MOVLW  00
05DF:  MOVWF  0F
05E0:  BCF    03.0
05E1:  MOVLW  0B
05E2:  BCF    03.6
05E3:  MOVWF  2B
05E4:  CALL   316
05E5:  MOVLW  89
05E6:  MOVWF  04
05E7:  MOVF   28,W
05E8:  MOVWF  2E
05E9:  MOVF   27,W
05EA:  MOVWF  2D
05EB:  MOVF   26,W
05EC:  MOVWF  2C
05ED:  MOVF   25,W
05EE:  MOVWF  2B
05EF:  MOVLW  01
05F0:  MOVWF  2F
05F1:  CALL   3BE
05F2:  MOVLW  20
05F3:  BTFSS  0C.4
05F4:  GOTO   5F3
05F5:  MOVWF  19
05F6:  MOVLW  43
05F7:  BTFSS  0C.4
05F8:  GOTO   5F7
05F9:  MOVWF  19
05FA:  MOVLW  0D
05FB:  BTFSS  0C.4
05FC:  GOTO   5FB
05FD:  MOVWF  19
....................   printf("Hava Soguk\r"); 
05FE:  MOVLW  0E
05FF:  BSF    03.6
0600:  MOVWF  0D
0601:  MOVLW  00
0602:  MOVWF  0F
0603:  BCF    03.6
0604:  CALL   4A2
....................   delay_ms(500); 
0605:  MOVLW  02
0606:  MOVWF  2B
0607:  MOVLW  FA
0608:  MOVWF  2C
0609:  CALL   4FA
060A:  DECFSZ 2B,F
060B:  GOTO   607
....................    
....................   output_high(pin_b0); 
060C:  BSF    06.0
....................   output_low(pin_b3); 
060D:  BCF    06.3
....................   output_low(pin_b6); 
060E:  BCF    06.6
....................    
....................   set_pwm1_duty(deger); 
060F:  MOVF   20,W
0610:  MOVWF  15
....................    
.................... } 
....................  
.................... if(sicaklik >= 16 && sicaklik <= 25){ 
0611:  CLRF   2E
0612:  CLRF   2D
0613:  CLRF   2C
0614:  MOVLW  83
0615:  MOVWF  2B
0616:  MOVF   28,W
0617:  MOVWF  32
0618:  MOVF   27,W
0619:  MOVWF  31
061A:  MOVF   26,W
061B:  MOVWF  30
061C:  MOVF   25,W
061D:  MOVWF  2F
061E:  CALL   2D7
061F:  BTFSC  03.0
0620:  GOTO   623
0621:  BTFSS  03.2
0622:  GOTO   66C
0623:  MOVF   28,W
0624:  MOVWF  2E
0625:  MOVF   27,W
0626:  MOVWF  2D
0627:  MOVF   26,W
0628:  MOVWF  2C
0629:  MOVF   25,W
062A:  MOVWF  2B
062B:  CLRF   32
062C:  CLRF   31
062D:  MOVLW  48
062E:  MOVWF  30
062F:  MOVLW  83
0630:  MOVWF  2F
0631:  CALL   2D7
0632:  BTFSC  03.0
0633:  GOTO   636
0634:  BTFSS  03.2
0635:  GOTO   66C
....................  
....................   printf("Sicaklik = %.1f C\r",sicaklik); 
0636:  MOVLW  14
0637:  BSF    03.6
0638:  MOVWF  0D
0639:  MOVLW  00
063A:  MOVWF  0F
063B:  BCF    03.0
063C:  MOVLW  0B
063D:  BCF    03.6
063E:  MOVWF  2B
063F:  CALL   316
0640:  MOVLW  89
0641:  MOVWF  04
0642:  MOVF   28,W
0643:  MOVWF  2E
0644:  MOVF   27,W
0645:  MOVWF  2D
0646:  MOVF   26,W
0647:  MOVWF  2C
0648:  MOVF   25,W
0649:  MOVWF  2B
064A:  MOVLW  01
064B:  MOVWF  2F
064C:  CALL   3BE
064D:  MOVLW  20
064E:  BTFSS  0C.4
064F:  GOTO   64E
0650:  MOVWF  19
0651:  MOVLW  43
0652:  BTFSS  0C.4
0653:  GOTO   652
0654:  MOVWF  19
0655:  MOVLW  0D
0656:  BTFSS  0C.4
0657:  GOTO   656
0658:  MOVWF  19
....................   printf("Hava Ilik\r"); 
0659:  MOVLW  1E
065A:  BSF    03.6
065B:  MOVWF  0D
065C:  MOVLW  00
065D:  MOVWF  0F
065E:  BCF    03.6
065F:  CALL   4A2
....................   delay_ms(500); 
0660:  MOVLW  02
0661:  MOVWF  2B
0662:  MOVLW  FA
0663:  MOVWF  2C
0664:  CALL   4FA
0665:  DECFSZ 2B,F
0666:  GOTO   662
....................    
....................   output_high(pin_b6); 
0667:  BSF    06.6
....................   output_low(pin_b0); 
0668:  BCF    06.0
....................   output_low(pin_b3); 
0669:  BCF    06.3
....................    
....................   set_pwm1_duty(deger); 
066A:  MOVF   20,W
066B:  MOVWF  15
....................  
.................... } 
....................  
.................... if(sicaklik >= 26){ 
066C:  CLRF   2E
066D:  CLRF   2D
066E:  MOVLW  50
066F:  MOVWF  2C
0670:  MOVLW  83
0671:  MOVWF  2B
0672:  MOVF   28,W
0673:  MOVWF  32
0674:  MOVF   27,W
0675:  MOVWF  31
0676:  MOVF   26,W
0677:  MOVWF  30
0678:  MOVF   25,W
0679:  MOVWF  2F
067A:  CALL   2D7
067B:  BTFSC  03.0
067C:  GOTO   67F
067D:  BTFSS  03.2
067E:  GOTO   6B5
....................  
....................   printf("Sicaklik = %.1f C\r",sicaklik); 
067F:  MOVLW  24
0680:  BSF    03.6
0681:  MOVWF  0D
0682:  MOVLW  00
0683:  MOVWF  0F
0684:  BCF    03.0
0685:  MOVLW  0B
0686:  BCF    03.6
0687:  MOVWF  2B
0688:  CALL   316
0689:  MOVLW  89
068A:  MOVWF  04
068B:  MOVF   28,W
068C:  MOVWF  2E
068D:  MOVF   27,W
068E:  MOVWF  2D
068F:  MOVF   26,W
0690:  MOVWF  2C
0691:  MOVF   25,W
0692:  MOVWF  2B
0693:  MOVLW  01
0694:  MOVWF  2F
0695:  CALL   3BE
0696:  MOVLW  20
0697:  BTFSS  0C.4
0698:  GOTO   697
0699:  MOVWF  19
069A:  MOVLW  43
069B:  BTFSS  0C.4
069C:  GOTO   69B
069D:  MOVWF  19
069E:  MOVLW  0D
069F:  BTFSS  0C.4
06A0:  GOTO   69F
06A1:  MOVWF  19
....................   printf("Hava Sicak\r"); 
06A2:  MOVLW  2E
06A3:  BSF    03.6
06A4:  MOVWF  0D
06A5:  MOVLW  00
06A6:  MOVWF  0F
06A7:  BCF    03.6
06A8:  CALL   4A2
....................   delay_ms(500); 
06A9:  MOVLW  02
06AA:  MOVWF  2B
06AB:  MOVLW  FA
06AC:  MOVWF  2C
06AD:  CALL   4FA
06AE:  DECFSZ 2B,F
06AF:  GOTO   6AB
....................    
....................   output_high(pin_b3); 
06B0:  BSF    06.3
....................   output_low(pin_b6); 
06B1:  BCF    06.6
....................   output_low(pin_b0); 
06B2:  BCF    06.0
....................    
....................   set_pwm1_duty(deger); 
06B3:  MOVF   20,W
06B4:  MOVWF  15
.................... } 
06B5:  GOTO   550
....................   
.................... } 
....................  
.................... } 
06B6:  SLEEP

Configuration Fuses:
   Word  1: 3B39   XT NOWDT NOPUT NOBROWNOUT NOLVP NOCPD NOWRT NODEBUG NOPROTECT
